target datalayout = "e-m:e-p270:32:32-p271:32:32-p272:64:64-i64:64-i128:128-f80:128-n8:16:32:64-S128"
target triple = "x86_64-pc-linux-gnu"

%"class.llvm::SmallVectorBase" = type { ptr, i32, i32 }
%"class.std::vector.109" = type { %"struct.std::_Vector_base.110" }
%"struct.std::_Vector_base.110" = type { %"struct.std::_Vector_base<unsigned int, std::allocator<unsigned int>>::_Vector_impl" }
%"struct.std::_Vector_base<unsigned int, std::allocator<unsigned int>>::_Vector_impl" = type { %"struct.std::_Vector_base<unsigned int, std::allocator<unsigned int>>::_Vector_impl_data" }
%"struct.std::_Vector_base<unsigned int, std::allocator<unsigned int>>::_Vector_impl_data" = type { ptr, ptr, ptr }
%"struct.llvm::Align" = type { i8 }
%"class.llvm::BumpPtrAllocatorImpl" = type { ptr, ptr, %"class.llvm::SmallVector.13", %"class.llvm::SmallVector.18", i64, i64 }
%"class.llvm::SmallVector.13" = type { %"class.llvm::SmallVectorImpl.14", %"struct.llvm::SmallVectorStorage.17" }
%"class.llvm::SmallVectorImpl.14" = type { %"class.llvm::SmallVectorTemplateBase.15" }
%"class.llvm::SmallVectorTemplateBase.15" = type { %"class.llvm::SmallVectorTemplateCommon.16" }
%"class.llvm::SmallVectorTemplateCommon.16" = type { %"class.llvm::SmallVectorBase" }
%"struct.llvm::SmallVectorStorage.17" = type { [32 x i8] }
%"class.llvm::SmallVector.18" = type { %"class.llvm::SmallVectorImpl.19" }
%"class.llvm::SmallVectorImpl.19" = type { %"class.llvm::SmallVectorTemplateBase.20" }
%"class.llvm::SmallVectorTemplateBase.20" = type { %"class.llvm::SmallVectorTemplateCommon.21" }
%"class.llvm::SmallVectorTemplateCommon.21" = type { %"class.llvm::SmallVectorBase" }
%"class.llvm::MachineFunction" = type <{ ptr, ptr, ptr, ptr, ptr, ptr, ptr, ptr, ptr, ptr, ptr, ptr, %"class.std::vector.295", i32, [4 x i8], %"class.llvm::BumpPtrAllocatorImpl", %"class.llvm::Recycler", %"class.llvm::ArrayRecycler", %"class.llvm::Recycler.305", %"class.llvm::iplist", i32, %"struct.llvm::Align", i8, i8, i8, %"class.llvm::MachineFunctionProperties", %"class.std::unique_ptr.313", %"class.std::vector.321", %"class.std::vector.326", %"class.std::vector.326", %"class.std::vector.331", %"class.llvm::DenseMap.336", %"class.llvm::DenseMap.339", %"class.llvm::DenseMap.342", %"class.std::vector.345", i8, i8, i8, i8, i8, i8, [2 x i8], i32, i32, %"class.std::vector.350", %"class.std::vector.109", %"class.std::vector.109", i32, [4 x i8], ptr, ptr, %"class.llvm::DenseMap.355", %"class.llvm::SmallVector.358", i32, [4 x i8], %"class.llvm::SmallVector.363", %"class.llvm::DenseMap.368", i8, [7 x i8] }>
%"class.std::vector.295" = type { %"struct.std::_Vector_base.296" }
%"struct.std::_Vector_base.296" = type { %"struct.std::_Vector_base<llvm::MachineBasicBlock *, std::allocator<llvm::MachineBasicBlock *>>::_Vector_impl" }
%"struct.std::_Vector_base<llvm::MachineBasicBlock *, std::allocator<llvm::MachineBasicBlock *>>::_Vector_impl" = type { %"struct.std::_Vector_base<llvm::MachineBasicBlock *, std::allocator<llvm::MachineBasicBlock *>>::_Vector_impl_data" }
%"struct.std::_Vector_base<llvm::MachineBasicBlock *, std::allocator<llvm::MachineBasicBlock *>>::_Vector_impl_data" = type { ptr, ptr, ptr }
%"class.llvm::Recycler" = type { ptr }
%"class.llvm::ArrayRecycler" = type { %"class.llvm::SmallVector.300" }
%"class.llvm::SmallVector.300" = type { %"class.llvm::SmallVectorImpl.301", %"struct.llvm::SmallVectorStorage.304" }
%"class.llvm::SmallVectorImpl.301" = type { %"class.llvm::SmallVectorTemplateBase.302" }
%"class.llvm::SmallVectorTemplateBase.302" = type { %"class.llvm::SmallVectorTemplateCommon.303" }
%"class.llvm::SmallVectorTemplateCommon.303" = type { %"class.llvm::SmallVectorBase" }
%"struct.llvm::SmallVectorStorage.304" = type { [64 x i8] }
%"class.llvm::Recycler.305" = type { ptr }
%"class.llvm::iplist" = type { %"class.llvm::iplist_impl.306" }
%"class.llvm::iplist_impl.306" = type { %"class.llvm::simple_ilist.308" }
%"class.llvm::simple_ilist.308" = type { %"class.llvm::ilist_sentinel.310" }
%"class.llvm::ilist_sentinel.310" = type { %"class.llvm::ilist_node_impl.311" }
%"class.llvm::ilist_node_impl.311" = type { %"class.llvm::ilist_node_base.256" }
%"class.llvm::ilist_node_base.256" = type { %"class.llvm::ilist_detail::node_base_prevnext.257" }
%"class.llvm::ilist_detail::node_base_prevnext.257" = type { ptr, ptr }
%"class.llvm::MachineFunctionProperties" = type { %"class.std::bitset" }
%"class.std::bitset" = type { %"struct.std::_Base_bitset" }
%"struct.std::_Base_bitset" = type { i64 }
%"class.std::unique_ptr.313" = type { %"struct.std::__uniq_ptr_data.314" }
%"struct.std::__uniq_ptr_data.314" = type { %"class.std::__uniq_ptr_impl.315" }
%"class.std::__uniq_ptr_impl.315" = type { %"class.std::tuple.316" }
%"class.std::tuple.316" = type { %"struct.std::_Tuple_impl.317" }
%"struct.std::_Tuple_impl.317" = type { %"struct.std::_Head_base.320" }
%"struct.std::_Head_base.320" = type { ptr }
%"class.std::vector.321" = type { %"struct.std::_Vector_base.322" }
%"struct.std::_Vector_base.322" = type { %"struct.std::_Vector_base<llvm::MCCFIInstruction, std::allocator<llvm::MCCFIInstruction>>::_Vector_impl" }
%"struct.std::_Vector_base<llvm::MCCFIInstruction, std::allocator<llvm::MCCFIInstruction>>::_Vector_impl" = type { %"struct.std::_Vector_base<llvm::MCCFIInstruction, std::allocator<llvm::MCCFIInstruction>>::_Vector_impl_data" }
%"struct.std::_Vector_base<llvm::MCCFIInstruction, std::allocator<llvm::MCCFIInstruction>>::_Vector_impl_data" = type { ptr, ptr, ptr }
%"class.std::vector.326" = type { %"struct.std::_Vector_base.327" }
%"struct.std::_Vector_base.327" = type { %"struct.std::_Vector_base<llvm::MCSymbol *, std::allocator<llvm::MCSymbol *>>::_Vector_impl" }
%"struct.std::_Vector_base<llvm::MCSymbol *, std::allocator<llvm::MCSymbol *>>::_Vector_impl" = type { %"struct.std::_Vector_base<llvm::MCSymbol *, std::allocator<llvm::MCSymbol *>>::_Vector_impl_data" }
%"struct.std::_Vector_base<llvm::MCSymbol *, std::allocator<llvm::MCSymbol *>>::_Vector_impl_data" = type { ptr, ptr, ptr }
%"class.std::vector.331" = type { %"struct.std::_Vector_base.332" }
%"struct.std::_Vector_base.332" = type { %"struct.std::_Vector_base<llvm::LandingPadInfo, std::allocator<llvm::LandingPadInfo>>::_Vector_impl" }
%"struct.std::_Vector_base<llvm::LandingPadInfo, std::allocator<llvm::LandingPadInfo>>::_Vector_impl" = type { %"struct.std::_Vector_base<llvm::LandingPadInfo, std::allocator<llvm::LandingPadInfo>>::_Vector_impl_data" }
%"struct.std::_Vector_base<llvm::LandingPadInfo, std::allocator<llvm::LandingPadInfo>>::_Vector_impl_data" = type { ptr, ptr, ptr }
%"class.llvm::DenseMap.336" = type <{ ptr, i32, i32, i32, [4 x i8] }>
%"class.llvm::DenseMap.339" = type <{ ptr, i32, i32, i32, [4 x i8] }>
%"class.llvm::DenseMap.342" = type <{ ptr, i32, i32, i32, [4 x i8] }>
%"class.std::vector.345" = type { %"struct.std::_Vector_base.346" }
%"struct.std::_Vector_base.346" = type { %"struct.std::_Vector_base<std::pair<llvm::MCSymbol *, llvm::MDNode *>, std::allocator<std::pair<llvm::MCSymbol *, llvm::MDNode *>>>::_Vector_impl" }
%"struct.std::_Vector_base<std::pair<llvm::MCSymbol *, llvm::MDNode *>, std::allocator<std::pair<llvm::MCSymbol *, llvm::MDNode *>>>::_Vector_impl" = type { %"struct.std::_Vector_base<std::pair<llvm::MCSymbol *, llvm::MDNode *>, std::allocator<std::pair<llvm::MCSymbol *, llvm::MDNode *>>>::_Vector_impl_data" }
%"struct.std::_Vector_base<std::pair<llvm::MCSymbol *, llvm::MDNode *>, std::allocator<std::pair<llvm::MCSymbol *, llvm::MDNode *>>>::_Vector_impl_data" = type { ptr, ptr, ptr }
%"class.std::vector.350" = type { %"struct.std::_Vector_base.351" }
%"struct.std::_Vector_base.351" = type { %"struct.std::_Vector_base<const llvm::GlobalValue *, std::allocator<const llvm::GlobalValue *>>::_Vector_impl" }
%"struct.std::_Vector_base<const llvm::GlobalValue *, std::allocator<const llvm::GlobalValue *>>::_Vector_impl" = type { %"struct.std::_Vector_base<const llvm::GlobalValue *, std::allocator<const llvm::GlobalValue *>>::_Vector_impl_data" }
%"struct.std::_Vector_base<const llvm::GlobalValue *, std::allocator<const llvm::GlobalValue *>>::_Vector_impl_data" = type { ptr, ptr, ptr }
%"class.llvm::DenseMap.355" = type <{ ptr, i32, i32, i32, [4 x i8] }>
%"class.llvm::SmallVector.358" = type { %"class.llvm::SmallVectorImpl.359", %"struct.llvm::SmallVectorStorage.362" }
%"class.llvm::SmallVectorImpl.359" = type { %"class.llvm::SmallVectorTemplateBase.360" }
%"class.llvm::SmallVectorTemplateBase.360" = type { %"class.llvm::SmallVectorTemplateCommon.361" }
%"class.llvm::SmallVectorTemplateCommon.361" = type { %"class.llvm::SmallVectorBase" }
%"struct.llvm::SmallVectorStorage.362" = type { [128 x i8] }
%"class.llvm::SmallVector.363" = type { %"class.llvm::SmallVectorImpl.364", %"struct.llvm::SmallVectorStorage.367" }
%"class.llvm::SmallVectorImpl.364" = type { %"class.llvm::SmallVectorTemplateBase.365" }
%"class.llvm::SmallVectorTemplateBase.365" = type { %"class.llvm::SmallVectorTemplateCommon.366" }
%"class.llvm::SmallVectorTemplateCommon.366" = type { %"class.llvm::SmallVectorBase" }
%"struct.llvm::SmallVectorStorage.367" = type { [160 x i8] }
%"class.llvm::DenseMap.368" = type <{ ptr, i32, i32, i32, [4 x i8] }>
%"class.llvm::MachineFrameInfo" = type { %"struct.llvm::Align", i8, i8, %"class.std::vector.371", i32, i8, i8, i8, i8, i8, i64, i64, %"struct.llvm::Align", i8, i8, i32, i32, i64, i32, %"class.std::vector.376", i8, %"class.llvm::SmallVector.381", i64, %"struct.llvm::Align", i8, i8, i8, i8, i8, i8, ptr, ptr, i64 }
%"class.std::vector.371" = type { %"struct.std::_Vector_base.372" }
%"struct.std::_Vector_base.372" = type { %"struct.std::_Vector_base<llvm::MachineFrameInfo::StackObject, std::allocator<llvm::MachineFrameInfo::StackObject>>::_Vector_impl" }
%"struct.std::_Vector_base<llvm::MachineFrameInfo::StackObject, std::allocator<llvm::MachineFrameInfo::StackObject>>::_Vector_impl" = type { %"struct.std::_Vector_base<llvm::MachineFrameInfo::StackObject, std::allocator<llvm::MachineFrameInfo::StackObject>>::_Vector_impl_data" }
%"struct.std::_Vector_base<llvm::MachineFrameInfo::StackObject, std::allocator<llvm::MachineFrameInfo::StackObject>>::_Vector_impl_data" = type { ptr, ptr, ptr }
%"class.std::vector.376" = type { %"struct.std::_Vector_base.377" }
%"struct.std::_Vector_base.377" = type { %"struct.std::_Vector_base<llvm::CalleeSavedInfo, std::allocator<llvm::CalleeSavedInfo>>::_Vector_impl" }
%"struct.std::_Vector_base<llvm::CalleeSavedInfo, std::allocator<llvm::CalleeSavedInfo>>::_Vector_impl" = type { %"struct.std::_Vector_base<llvm::CalleeSavedInfo, std::allocator<llvm::CalleeSavedInfo>>::_Vector_impl_data" }
%"struct.std::_Vector_base<llvm::CalleeSavedInfo, std::allocator<llvm::CalleeSavedInfo>>::_Vector_impl_data" = type { ptr, ptr, ptr }
%"class.llvm::SmallVector.381" = type { %"class.llvm::SmallVectorImpl.382", %"struct.llvm::SmallVectorStorage.385" }
%"class.llvm::SmallVectorImpl.382" = type { %"class.llvm::SmallVectorTemplateBase.383" }
%"class.llvm::SmallVectorTemplateBase.383" = type { %"class.llvm::SmallVectorTemplateCommon.384" }
%"class.llvm::SmallVectorTemplateCommon.384" = type { %"class.llvm::SmallVectorBase" }
%"struct.llvm::SmallVectorStorage.385" = type { [512 x i8] }

; Function Attrs: mustprogress nounwind uwtable
define linkonce_odr hidden noundef zeroext i1 @_ZNK4llvm16MachineFrameInfo26isMaxCallFrameSizeComputedEv(ptr noundef nonnull align 8 dereferenceable(696) %0) #0 comdat align 2 {
  %2 = alloca ptr, align 8
  store ptr %0, ptr %2, align 8
  %3 = load ptr, ptr %2, align 8
  %4 = getelementptr inbounds nuw %"class.llvm::MachineFrameInfo", ptr %3, i32 0, i32 17
  %5 = load i64, ptr %4, align 8
  %6 = icmp ne i64 %5, -1
  ret i1 %6
}

; Function Attrs: mustprogress nounwind uwtable
define linkonce_odr hidden noundef nonnull align 8 dereferenceable(696) ptr @_ZN4llvm15MachineFunction12getFrameInfoEv(ptr noundef nonnull align 8 dereferenceable(1041) %0) #0 comdat align 2 {
  %2 = alloca ptr, align 8
  store ptr %0, ptr %2, align 8
  %3 = load ptr, ptr %2, align 8
  %4 = getelementptr inbounds nuw %"class.llvm::MachineFunction", ptr %3, i32 0, i32 6
  %5 = load ptr, ptr %4, align 8
  ret ptr %5
}

; Function Attrs: mustprogress nounwind uwtable
define dso_local void @_ZNK4llvm16AArch64Subtarget13mirFileLoadedERNS_15MachineFunctionE(ptr noundef nonnull align 8 dereferenceable(409552) %0, ptr noundef nonnull align 8 dereferenceable(1041) %1) unnamed_addr #0 align 2 {
  %3 = alloca ptr, align 8
  %4 = alloca ptr, align 8
  %5 = alloca ptr, align 8
  store ptr %0, ptr %3, align 8
  store ptr %1, ptr %4, align 8
  %6 = load ptr, ptr %4, align 8
  %7 = call noundef nonnull align 8 dereferenceable(696) ptr @_ZN4llvm15MachineFunction12getFrameInfoEv(ptr noundef nonnull align 8 dereferenceable(1041) %6)
  store ptr %7, ptr %5, align 8
  %8 = load ptr, ptr %5, align 8
  %9 = call noundef zeroext i1 @_ZNK4llvm16MachineFrameInfo26isMaxCallFrameSizeComputedEv(ptr noundef nonnull align 8 dereferenceable(696) %8)
  br i1 %9, label %13, label %10

10:                                               ; preds = %2
  %11 = load ptr, ptr %5, align 8
  %12 = load ptr, ptr %4, align 8
  call void @_ZN4llvm16MachineFrameInfo23computeMaxCallFrameSizeERNS_15MachineFunctionEPSt6vectorINS_26MachineInstrBundleIteratorINS_12MachineInstrELb0EEESaIS6_EE(ptr noundef nonnull align 8 dereferenceable(696) %11, ptr noundef nonnull align 8 dereferenceable(1041) %12, ptr noundef null)
  br label %13

13:                                               ; preds = %10, %2
  ret void
}