; Function Attrs: mustprogress nounwind uwtable
define dso_local void @_ZNK4llvm16AArch64Subtarget13mirFileLoadedERNS_15MachineFunctionE(ptr nocapture nonnull readnone align 8 %0, ptr noundef nonnull align 8 dereferenceable(1041) %1) unnamed_addr #0 align 2 {
  %3 = getelementptr inbounds nuw i8, ptr %1, i64 48
  %4 = load ptr, ptr %3, align 8
  %5 = getelementptr inbounds nuw i8, ptr %4, i64 80
  %6 = load i64, ptr %5, align 8
  %.not = icmp eq i64 %6, -1
  br i1 %.not, label %7, label %8

7:                                                ; preds = %2
  tail call void @_ZN4llvm16MachineFrameInfo23computeMaxCallFrameSizeERNS_15MachineFunctionEPSt6vectorINS_26MachineInstrBundleIteratorINS_12MachineInstrELb0EEESaIS6_EE(ptr noundef nonnull align 8 dereferenceable(696) %4, ptr noundef nonnull align 8 dereferenceable(1041) %1, ptr noundef null) #20
  br label %8

8:                                                ; preds = %7, %2
  ret void
}